; Function Attrs: nounwind uwtable
define ptr @l_Array_foldlMUnsafe_fold___at_Lake_Toml_RBDict_fold___spec__1___rarg(ptr noundef %0, ptr noundef readonly captures(none) %1, i64 noundef %2, i64 noundef %3, ptr noundef %4) local_unnamed_addr #0 {
  %.not52 = icmp eq i64 %2, %3
  br i1 %.not52, label %.._crit_edge_crit_edge, label %.lr.ph

.._crit_edge_crit_edge:                           ; preds = %5
  %.pre = ptrtoint ptr %0 to i64
  %.pre55 = and i64 %.pre, 1
  br label %._crit_edge

.lr.ph:                                           ; preds = %5
  %6 = getelementptr inbounds nuw i8, ptr %1, i64 24
  %7 = ptrtoint ptr %0 to i64
  %8 = and i64 %7, 1
  %.not51 = icmp eq i64 %8, 0
  br label %9

9:                                                ; preds = %.lr.ph, %lean_dec.exit
  %.02354 = phi i64 [ %2, %.lr.ph ], [ %20, %lean_dec.exit ]
  %.02553 = phi ptr [ %4, %.lr.ph ], [ %61, %lean_dec.exit ]
  %10 = getelementptr inbounds nuw [0 x ptr], ptr %6, i64 0, i64 %.02354
  %11 = load ptr, ptr %10, align 8, !tbaa !4
  %12 = ptrtoint ptr %11 to i64
  %13 = and i64 %12, 1
  %.not.i32 = icmp eq i64 %13, 0
  br i1 %.not.i32, label %14, label %lean_array_uget.exit

14:                                               ; preds = %9
  %.val.i.i = load i32, ptr %11, align 4, !tbaa !8
  %15 = icmp sgt i32 %.val.i.i, 0
  br i1 %15, label %16, label %18, !prof !13

16:                                               ; preds = %14
  %17 = add nuw i32 %.val.i.i, 1
  store i32 %17, ptr %11, align 4, !tbaa !8
  br label %lean_array_uget.exit

18:                                               ; preds = %14
  %.not.i.i = icmp eq i32 %.val.i.i, 0
  br i1 %.not.i.i, label %lean_array_uget.exit, label %19

19:                                               ; preds = %18
  tail call void @lean_inc_ref_cold(ptr noundef nonnull %11) #5
  br label %lean_array_uget.exit

lean_array_uget.exit:                             ; preds = %9, %16, %18, %19
  %20 = add i64 %.02354, 1
  %21 = getelementptr inbounds nuw i8, ptr %11, i64 8
  %22 = load ptr, ptr %21, align 8, !tbaa !4
  %23 = ptrtoint ptr %22 to i64
  %24 = and i64 %23, 1
  %.not48 = icmp eq i64 %24, 0
  br i1 %.not48, label %25, label %lean_inc.exit29

25:                                               ; preds = %lean_array_uget.exit
  %.val.i = load i32, ptr %22, align 4, !tbaa !8
  %26 = icmp sgt i32 %.val.i, 0
  br i1 %26, label %27, label %29, !prof !13

27:                                               ; preds = %25
  %28 = add nuw i32 %.val.i, 1
  store i32 %28, ptr %22, align 4, !tbaa !8
  br label %lean_inc.exit29

29:                                               ; preds = %25
  %.not.i33 = icmp eq i32 %.val.i, 0
  br i1 %.not.i33, label %lean_inc.exit29, label %30

30:                                               ; preds = %29
  tail call void @lean_inc_ref_cold(ptr noundef nonnull %22) #5
  br label %lean_inc.exit29

lean_inc.exit29:                                  ; preds = %30, %29, %27, %lean_array_uget.exit
  %31 = getelementptr inbounds nuw i8, ptr %11, i64 16
  %32 = load ptr, ptr %31, align 8, !tbaa !4
  %33 = ptrtoint ptr %32 to i64
  %34 = and i64 %33, 1
  %.not49 = icmp eq i64 %34, 0
  br i1 %.not49, label %35, label %lean_inc.exit28

35:                                               ; preds = %lean_inc.exit29
  %.val.i34 = load i32, ptr %32, align 4, !tbaa !8
  %36 = icmp sgt i32 %.val.i34, 0
  br i1 %36, label %37, label %39, !prof !13

37:                                               ; preds = %35
  %38 = add nuw i32 %.val.i34, 1
  store i32 %38, ptr %32, align 4, !tbaa !8
  br label %lean_inc.exit28

39:                                               ; preds = %35
  %.not.i35 = icmp eq i32 %.val.i34, 0
  br i1 %.not.i35, label %lean_inc.exit28, label %40

40:                                               ; preds = %39
  tail call void @lean_inc_ref_cold(ptr noundef nonnull %32) #5
  br label %lean_inc.exit28

lean_inc.exit28:                                  ; preds = %40, %39, %37, %lean_inc.exit29
  br i1 %.not.i32, label %41, label %lean_dec.exit27

41:                                               ; preds = %lean_inc.exit28
  %42 = load i32, ptr %11, align 4, !tbaa !8
  %43 = icmp sgt i32 %42, 1
  br i1 %43, label %44, label %46, !prof !13

44:                                               ; preds = %41
  %45 = add nsw i32 %42, -1
  store i32 %45, ptr %11, align 4, !tbaa !8
  br label %lean_dec.exit27

46:                                               ; preds = %41
  %.not.i = icmp eq i32 %42, 0
  br i1 %.not.i, label %lean_dec.exit27, label %47

47:                                               ; preds = %46
  tail call void @lean_dec_ref_cold(ptr noundef nonnull %11) #5
  br label %lean_dec.exit27

lean_dec.exit27:                                  ; preds = %47, %46, %44, %lean_inc.exit28
  br i1 %.not51, label %48, label %lean_dec.exit

48:                                               ; preds = %lean_dec.exit27
  %.val.i37 = load i32, ptr %0, align 4, !tbaa !8
  %49 = icmp sgt i32 %.val.i37, 0
  br i1 %49, label %50, label %52, !prof !13

50:                                               ; preds = %48
  %51 = add nuw i32 %.val.i37, 1
  store i32 %51, ptr %0, align 4, !tbaa !8
  br label %lean_dec.exit

52:                                               ; preds = %48
  %.not.i38 = icmp eq i32 %.val.i37, 0
  br i1 %.not.i38, label %lean_dec.exit, label %53

53:                                               ; preds = %52
  tail call void @lean_inc_ref_cold(ptr noundef nonnull %0) #5
  br label %lean_dec.exit

._crit_edge:                                      ; preds = %lean_dec.exit, %.._crit_edge_crit_edge
  %.pre-phi56 = phi i64 [ %.pre55, %.._crit_edge_crit_edge ], [ %8, %lean_dec.exit ]
  %.025.lcssa = phi ptr [ %4, %.._crit_edge_crit_edge ], [ %61, %lean_dec.exit ]
  %.not47 = icmp eq i64 %.pre-phi56, 0
  br i1 %.not47, label %54, label %62

54:                                               ; preds = %._crit_edge
  %55 = load i32, ptr %0, align 4, !tbaa !8
  %56 = icmp sgt i32 %55, 1
  br i1 %56, label %57, label %59, !prof !13

57:                                               ; preds = %54
  %58 = add nsw i32 %55, -1
  store i32 %58, ptr %0, align 4, !tbaa !8
  br label %62

59:                                               ; preds = %54
  %.not.i30 = icmp eq i32 %55, 0
  br i1 %.not.i30, label %62, label %60

60:                                               ; preds = %59
  tail call void @lean_dec_ref_cold(ptr noundef nonnull %0) #5
  br label %62

lean_dec.exit:                                    ; preds = %lean_dec.exit27, %50, %52, %53
  %61 = tail call ptr @lean_apply_3(ptr noundef %0, ptr noundef %.02553, ptr noundef %22, ptr noundef %32) #5
  %.not = icmp eq i64 %20, %3
  br i1 %.not, label %._crit_edge, label %9

62:                                               ; preds = %60, %59, %57, %._crit_edge
  ret ptr %.025.lcssa
}